; Function Attrs: nounwind uwtable
define internal void @add_error_token_at_start(ptr nocapture noundef %0, ptr noundef %1, ...) unnamed_addr #0 {
  %3 = alloca [1 x %struct.__va_list_tag], align 16
  call void @llvm.va_start.p0(ptr nonnull %3)
  %4 = getelementptr inbounds i8, ptr %0, i64 56
  %5 = load ptr, ptr %4, align 8
  %6 = load i16, ptr %5, align 8
  %7 = getelementptr inbounds i8, ptr %0, i64 16
  %8 = load ptr, ptr %7, align 8
  %9 = getelementptr inbounds i8, ptr %0, i64 48
  %10 = load ptr, ptr %9, align 8
  %11 = ptrtoint ptr %8 to i64
  %12 = ptrtoint ptr %10 to i64
  %13 = sub i64 %11, %12
  %14 = getelementptr inbounds i8, ptr %0, i64 36
  %15 = icmp sgt i64 %13, 254
  %16 = load i32, ptr %14, align 4
  %.sroa.4.0.insert.ext = zext i32 %16 to i64
  %.sroa.4.0.insert.shift = shl nuw i64 %.sroa.4.0.insert.ext, 32
  %17 = shl i64 %13, 24
  %18 = add i64 %17, 16777216
  %19 = and i64 %18, 4278190080
  %.sroa.3.0.insert.shift = select i1 %15, i64 0, i64 %19
  %.sroa.3.0.insert.insert = or disjoint i64 %.sroa.3.0.insert.shift, %.sroa.4.0.insert.shift
  %.sroa.0.0.insert.ext = zext i16 %6 to i64
  %.sroa.2.0.insert.insert = or disjoint i64 %.sroa.3.0.insert.insert, %.sroa.0.0.insert.ext
  %.sroa.0.0.insert.insert = or disjoint i64 %.sroa.2.0.insert.insert, 65536
  call void @sema_verror_range(i64 %.sroa.0.0.insert.insert, ptr noundef %1, ptr noundef nonnull %3) #10
  call void @llvm.va_end.p0(ptr nonnull %3)
  %20 = getelementptr inbounds i8, ptr %0, i64 112
  store i32 0, ptr %20, align 8
  %21 = getelementptr inbounds i8, ptr %0, i64 24
  %22 = load ptr, ptr %21, align 8
  %23 = load ptr, ptr %7, align 8
  %24 = ptrtoint ptr %22 to i64
  %25 = ptrtoint ptr %23 to i64
  %26 = sub i64 %24, %25
  %27 = getelementptr inbounds i8, ptr %0, i64 64
  %28 = getelementptr inbounds i8, ptr %0, i64 72
  store i64 %26, ptr %28, align 8
  store ptr %23, ptr %27, align 8
  %29 = load i32, ptr %14, align 4
  %30 = getelementptr inbounds i8, ptr %0, i64 32
  %31 = load i32, ptr %30, align 8
  %32 = icmp eq i32 %29, %31
  br i1 %32, label %33, label %44

33:                                               ; preds = %2
  %34 = getelementptr inbounds i8, ptr %0, i64 40
  %35 = load ptr, ptr %34, align 8
  %36 = ptrtoint ptr %35 to i64
  %37 = sub i64 %25, %36
  %38 = icmp sgt i64 %37, 254
  %39 = trunc i64 %37 to i8
  %40 = add i8 %39, 1
  %.0.i.i = select i1 %38, i8 0, i8 %40
  %41 = icmp sgt i64 %26, 255
  %42 = trunc i64 %26 to i8
  %43 = select i1 %41, i8 0, i8 %42
  br label %set_generic_token.exit

44:                                               ; preds = %2
  %45 = load ptr, ptr %9, align 8
  %46 = ptrtoint ptr %45 to i64
  %47 = sub i64 %25, %46
  %48 = icmp sgt i64 %47, 254
  %49 = trunc i64 %47 to i8
  %50 = add i8 %49, 1
  %.0.i26.i = select i1 %48, i8 0, i8 %50
  br label %set_generic_token.exit

set_generic_token.exit:                           ; preds = %33, %44
  %.024.in.i = phi i8 [ %.0.i.i, %33 ], [ %.0.i26.i, %44 ]
  %.0.i7 = phi i8 [ %43, %33 ], [ 1, %44 ]
  %51 = getelementptr inbounds i8, ptr %0, i64 106
  store i8 %.0.i7, ptr %51, align 2
  %52 = getelementptr inbounds i8, ptr %0, i64 107
  store i8 %.024.in.i, ptr %52, align 1
  %53 = getelementptr inbounds i8, ptr %0, i64 108
  store i32 %29, ptr %53, align 4
  ret void
}